target datalayout = "e-m:e-p270:32:32-p271:32:32-p272:64:64-i64:64-i128:128-f80:128-n8:16:32:64-S128"
target triple = "x86_64-pc-linux-gnu"

%struct.option = type { i32, i32, ptr, ptr, ptr, ptr, i32, ptr, i64, ptr, i64, ptr }

@.str.51 = private unnamed_addr constant [10 x i8] c"archive.c\00", align 1
@.str.61 = private unnamed_addr constant [41 x i8] c"option callback does not expect negation\00", align 1

; Function Attrs: nounwind uwtable
define internal i32 @number_callback(ptr noundef %0, ptr noundef %1, i32 noundef %2) #0 {
  %4 = alloca ptr, align 8
  %5 = alloca ptr, align 8
  %6 = alloca i32, align 4
  store ptr %0, ptr %4, align 8, !tbaa !187
  store ptr %1, ptr %5, align 8, !tbaa !50
  store i32 %2, ptr %6, align 4, !tbaa !9
  br label %7

7:                                                ; preds = %3
  %8 = load i32, ptr %6, align 4, !tbaa !9
  %9 = icmp ne i32 %8, 0
  br i1 %9, label %10, label %11

10:                                               ; preds = %7
  call void (ptr, i32, ptr, ...) @BUG_fl(ptr noundef @.str.51, i32 noundef 627, ptr noundef @.str.61) #10
  unreachable

11:                                               ; preds = %7
  br label %12

12:                                               ; preds = %11
  %13 = load ptr, ptr %5, align 8, !tbaa !50
  %14 = call i64 @strtol(ptr noundef %13, ptr noundef null, i32 noundef 10) #11
  %15 = trunc i64 %14 to i32
  %16 = load ptr, ptr %4, align 8, !tbaa !187
  %17 = getelementptr inbounds nuw %struct.option, ptr %16, i32 0, i32 3
  %18 = load ptr, ptr %17, align 8, !tbaa !125
  store i32 %15, ptr %18, align 4, !tbaa !9
  ret i32 0
}