; Function Attrs: nounwind uwtable
define internal noundef i32 @number_callback(ptr noundef readonly captures(none) %0, ptr noundef readonly captures(none) %1, i32 noundef %2) #0 {
  %.not = icmp eq i32 %2, 0
  br i1 %.not, label %5, label %4

4:                                                ; preds = %3
  tail call void (ptr, i32, ptr, ...) @BUG_fl(ptr noundef nonnull @.str.51, i32 noundef 627, ptr noundef nonnull @.str.61) #18
  unreachable

5:                                                ; preds = %3
  %6 = tail call i64 @strtol(ptr noundef captures(none) %1, ptr noundef null, i32 noundef 10) #19
  %7 = trunc i64 %6 to i32
  %8 = getelementptr inbounds nuw i8, ptr %0, i64 16
  %9 = load ptr, ptr %8, align 8, !tbaa !110
  store i32 %7, ptr %9, align 4, !tbaa !4
  ret i32 0
}